; Function Attrs: mustprogress uwtable
define noalias noundef nonnull ptr @lean_io_prim_handle_write(ptr noundef readonly captures(none) %0, ptr noundef readonly captures(none) %1, ptr noundef readnone captures(none) %2) local_unnamed_addr #0 {
  %4 = getelementptr i8, ptr %0, i64 16
  %.val = load ptr, ptr %4, align 8, !tbaa !39
  %5 = getelementptr i8, ptr %1, i64 8
  %.val7 = load i64, ptr %5, align 8, !tbaa !45
  %6 = getelementptr inbounds nuw i8, ptr %1, i64 24
  %7 = tail call i64 @fwrite(ptr noundef nonnull %6, i64 noundef 1, i64 noundef %.val7, ptr noundef %.val)
  %8 = icmp eq i64 %7, %.val7
  br i1 %8, label %9, label %13

9:                                                ; preds = %3
  tail call void @lean_inc_heartbeat()
  %10 = tail call noalias ptr @mi_malloc_small(i64 noundef 24) #27
  %11 = icmp eq ptr %10, null
  br i1 %11, label %12, label %_ZN4lean15io_result_mk_okEP11lean_object.exit

12:                                               ; preds = %9
  tail call void @lean_internal_panic_out_of_memory() #28
  unreachable

13:                                               ; preds = %3
  %14 = tail call ptr @__errno_location() #30
  %15 = load i32, ptr %14, align 4, !tbaa !44
  %16 = tail call noundef ptr @lean_decode_io_error(i32 noundef %15, ptr noundef null)
  tail call void @lean_inc_heartbeat()
  %17 = tail call noalias ptr @mi_malloc_small(i64 noundef 24) #27
  %18 = icmp eq ptr %17, null
  br i1 %18, label %19, label %_ZN4lean15io_result_mk_okEP11lean_object.exit

19:                                               ; preds = %13
  tail call void @lean_internal_panic_out_of_memory() #28
  unreachable

_ZN4lean15io_result_mk_okEP11lean_object.exit:    ; preds = %13, %9
  %.sink14 = phi ptr [ %10, %9 ], [ %17, %13 ]
  %.sink11 = phi i32 [ 131096, %9 ], [ 16908312, %13 ]
  %.sink = phi ptr [ inttoptr (i64 1 to ptr), %9 ], [ %16, %13 ]
  %20 = getelementptr inbounds nuw i8, ptr %.sink14, i64 4
  store i32 1, ptr %.sink14, align 4, !tbaa !7
  store i32 %.sink11, ptr %20, align 4
  %21 = getelementptr inbounds nuw i8, ptr %.sink14, i64 8
  store ptr %.sink, ptr %21, align 8, !tbaa !3
  %22 = getelementptr inbounds nuw i8, ptr %.sink14, i64 16
  store ptr inttoptr (i64 1 to ptr), ptr %22, align 8, !tbaa !3
  ret ptr %.sink14
}